; Function Attrs: mustprogress uwtable
define void @_ZN6icu_7725ScientificNumberFormatter14getPreExponentERKNS_20DecimalFormatSymbolsERNS_13UnicodeStringE(ptr noundef nonnull align 8 dereferenceable(2579) %0, ptr noundef nonnull align 8 dereferenceable(64) %1) local_unnamed_addr #0 align 2 {
  %3 = getelementptr inbounds nuw i8, ptr %0, i64 1736
  %4 = getelementptr inbounds nuw i8, ptr %0, i64 1744
  %5 = load i16, ptr %4, align 8, !tbaa !17
  %6 = icmp slt i16 %5, 0
  %7 = ashr i16 %5, 5
  %8 = sext i16 %7 to i32
  %9 = getelementptr inbounds nuw i8, ptr %0, i64 1748
  %10 = load i32, ptr %9, align 4
  %11 = select i1 %6, i32 %10, i32 %8
  %12 = tail call noundef nonnull align 8 dereferenceable(64) ptr @_ZN6icu_7713UnicodeString8doAppendERKS0_ii(ptr noundef nonnull align 8 dereferenceable(64) %1, ptr noundef nonnull align 8 dereferenceable(64) %3, i32 noundef 0, i32 noundef %11)
  %13 = getelementptr inbounds nuw i8, ptr %0, i64 1160
  %14 = getelementptr inbounds nuw i8, ptr %0, i64 1168
  %15 = load i16, ptr %14, align 8, !tbaa !17
  %16 = icmp slt i16 %15, 0
  %17 = ashr i16 %15, 5
  %18 = sext i16 %17 to i32
  %19 = getelementptr inbounds nuw i8, ptr %0, i64 1172
  %20 = load i32, ptr %19, align 4
  %21 = select i1 %16, i32 %20, i32 %18
  %22 = tail call noundef nonnull align 8 dereferenceable(64) ptr @_ZN6icu_7713UnicodeString8doAppendERKS0_ii(ptr noundef nonnull align 8 dereferenceable(64) %1, ptr noundef nonnull align 8 dereferenceable(64) %13, i32 noundef 0, i32 noundef %21)
  %23 = getelementptr inbounds nuw i8, ptr %0, i64 264
  %24 = getelementptr inbounds nuw i8, ptr %0, i64 272
  %25 = load i16, ptr %24, align 8, !tbaa !17
  %26 = icmp slt i16 %25, 0
  %27 = ashr i16 %25, 5
  %28 = sext i16 %27 to i32
  %29 = getelementptr inbounds nuw i8, ptr %0, i64 276
  %30 = load i32, ptr %29, align 4
  %31 = select i1 %26, i32 %30, i32 %28
  %32 = tail call noundef nonnull align 8 dereferenceable(64) ptr @_ZN6icu_7713UnicodeString8doAppendERKS0_ii(ptr noundef nonnull align 8 dereferenceable(64) %1, ptr noundef nonnull align 8 dereferenceable(64) %23, i32 noundef 0, i32 noundef %31)
  ret void
}